target datalayout = "e-m:e-p270:32:32-p271:32:32-p272:64:64-i64:64-i128:128-f80:128-n8:16:32:64-S128"
target triple = "x86_64-pc-linux-gnu"

%struct.PGEventRegister = type { ptr }
%struct.pg_conn = type { ptr, ptr, ptr, ptr, ptr, ptr, ptr, ptr, ptr, ptr, ptr, ptr, ptr, ptr, ptr, ptr, ptr, ptr, ptr, ptr, ptr, ptr, ptr, ptr, ptr, ptr, ptr, ptr, ptr, ptr, ptr, ptr, ptr, ptr, ptr, ptr, ptr, ptr, ptr, ptr, ptr, ptr, ptr, i8, ptr, i32, %struct.PGNoticeHooks, ptr, i32, i32, i32, i32, i32, [6 x i8], i8, i8, i32, i8, i8, i32, i8, i32, ptr, ptr, i32, i32, ptr, ptr, ptr, ptr, ptr, i32, %struct.SockAddr, %struct.SockAddr, i32, i32, i8, i8, i8, i8, i8, i8, ptr, i8, i32, [1 x ptr], i8, i8, ptr, ptr, i32, i32, i32, i8, i8, i32, i32, ptr, i8, i64, ptr, i64, ptr, i32, i32, ptr, i32, i8, i32, i32, i32, i32, ptr, %struct.pg_prng_state, ptr, i32, i32, i32, i32, ptr, i32, i32, i32, i32, ptr, i32, ptr, i8, ptr, ptr, ptr, i32, i8, i8, i8, i8, i8, i8, i8, i8, %struct.PQExpBufferData, i32, %struct.PQExpBufferData }
%struct.PGNoticeHooks = type { ptr, ptr, ptr, ptr }
%struct.SockAddr = type { %struct.sockaddr_storage, i32 }
%struct.sockaddr_storage = type { i16, [118 x i8], i64 }
%struct.pg_prng_state = type { i64, i64 }
%struct.PQExpBufferData = type { ptr, i64, i64 }
%struct.PGEvent = type { ptr, ptr, ptr, ptr, i8 }

; Function Attrs: nounwind uwtable
define i32 @PQregisterEventProc(ptr noundef %0, ptr noundef %1, ptr noundef %2, ptr noundef %3) #0 {
  %5 = alloca i32, align 4
  %6 = alloca ptr, align 8
  %7 = alloca ptr, align 8
  %8 = alloca ptr, align 8
  %9 = alloca ptr, align 8
  %10 = alloca i32, align 4
  %11 = alloca %struct.PGEventRegister, align 8
  %12 = alloca i32, align 4
  %13 = alloca ptr, align 8
  %14 = alloca i32, align 4
  store ptr %0, ptr %6, align 8
  store ptr %1, ptr %7, align 8
  store ptr %2, ptr %8, align 8
  store ptr %3, ptr %9, align 8
  call void @llvm.lifetime.start.p0(i64 4, ptr %10) #5
  call void @llvm.lifetime.start.p0(i64 8, ptr %11) #5
  %15 = load ptr, ptr %7, align 8
  %16 = icmp ne ptr %15, null
  br i1 %16, label %17, label %27

17:                                               ; preds = %4
  %18 = load ptr, ptr %6, align 8
  %19 = icmp ne ptr %18, null
  br i1 %19, label %20, label %27

20:                                               ; preds = %17
  %21 = load ptr, ptr %8, align 8
  %22 = icmp ne ptr %21, null
  br i1 %22, label %23, label %27

23:                                               ; preds = %20
  %24 = load ptr, ptr %8, align 8
  %25 = load i8, ptr %24, align 1
  %26 = icmp ne i8 %25, 0
  br i1 %26, label %28, label %27

27:                                               ; preds = %23, %20, %17, %4
  store i32 0, ptr %5, align 4
  store i32 1, ptr %12, align 4
  br label %192

28:                                               ; preds = %23
  store i32 0, ptr %10, align 4
  br label %29

29:                                               ; preds = %48, %28
  %30 = load i32, ptr %10, align 4
  %31 = load ptr, ptr %6, align 8
  %32 = getelementptr inbounds nuw %struct.pg_conn, ptr %31, i32 0, i32 48
  %33 = load i32, ptr %32, align 8
  %34 = icmp slt i32 %30, %33
  br i1 %34, label %35, label %51

35:                                               ; preds = %29
  %36 = load ptr, ptr %6, align 8
  %37 = getelementptr inbounds nuw %struct.pg_conn, ptr %36, i32 0, i32 47
  %38 = load ptr, ptr %37, align 8
  %39 = load i32, ptr %10, align 4
  %40 = sext i32 %39 to i64
  %41 = getelementptr inbounds %struct.PGEvent, ptr %38, i64 %40
  %42 = getelementptr inbounds nuw %struct.PGEvent, ptr %41, i32 0, i32 0
  %43 = load ptr, ptr %42, align 8
  %44 = load ptr, ptr %7, align 8
  %45 = icmp eq ptr %43, %44
  br i1 %45, label %46, label %47

46:                                               ; preds = %35
  store i32 0, ptr %5, align 4
  store i32 1, ptr %12, align 4
  br label %192

47:                                               ; preds = %35
  br label %48

48:                                               ; preds = %47
  %49 = load i32, ptr %10, align 4
  %50 = add i32 %49, 1
  store i32 %50, ptr %10, align 4
  br label %29, !llvm.loop !3

51:                                               ; preds = %29
  %52 = load ptr, ptr %6, align 8
  %53 = getelementptr inbounds nuw %struct.pg_conn, ptr %52, i32 0, i32 48
  %54 = load i32, ptr %53, align 8
  %55 = load ptr, ptr %6, align 8
  %56 = getelementptr inbounds nuw %struct.pg_conn, ptr %55, i32 0, i32 49
  %57 = load i32, ptr %56, align 4
  %58 = icmp sge i32 %54, %57
  br i1 %58, label %59, label %103

59:                                               ; preds = %51
  call void @llvm.lifetime.start.p0(i64 8, ptr %13) #5
  call void @llvm.lifetime.start.p0(i64 4, ptr %14) #5
  %60 = load ptr, ptr %6, align 8
  %61 = getelementptr inbounds nuw %struct.pg_conn, ptr %60, i32 0, i32 49
  %62 = load i32, ptr %61, align 4
  %63 = icmp ne i32 %62, 0
  br i1 %63, label %64, label %69

64:                                               ; preds = %59
  %65 = load ptr, ptr %6, align 8
  %66 = getelementptr inbounds nuw %struct.pg_conn, ptr %65, i32 0, i32 49
  %67 = load i32, ptr %66, align 4
  %68 = mul i32 %67, 2
  br label %70

69:                                               ; preds = %59
  br label %70

70:                                               ; preds = %69, %64
  %71 = phi i32 [ %68, %64 ], [ 8, %69 ]
  store i32 %71, ptr %14, align 4
  %72 = load ptr, ptr %6, align 8
  %73 = getelementptr inbounds nuw %struct.pg_conn, ptr %72, i32 0, i32 47
  %74 = load ptr, ptr %73, align 8
  %75 = icmp ne ptr %74, null
  br i1 %75, label %76, label %84

76:                                               ; preds = %70
  %77 = load ptr, ptr %6, align 8
  %78 = getelementptr inbounds nuw %struct.pg_conn, ptr %77, i32 0, i32 47
  %79 = load ptr, ptr %78, align 8
  %80 = load i32, ptr %14, align 4
  %81 = sext i32 %80 to i64
  %82 = mul i64 %81, 40
  %83 = call ptr @realloc(ptr noundef %79, i64 noundef %82) #6
  store ptr %83, ptr %13, align 8
  br label %89

84:                                               ; preds = %70
  %85 = load i32, ptr %14, align 4
  %86 = sext i32 %85 to i64
  %87 = mul i64 %86, 40
  %88 = call noalias ptr @malloc(i64 noundef %87) #7
  store ptr %88, ptr %13, align 8
  br label %89

89:                                               ; preds = %84, %76
  %90 = load ptr, ptr %13, align 8
  %91 = icmp ne ptr %90, null
  br i1 %91, label %93, label %92

92:                                               ; preds = %89
  store i32 0, ptr %5, align 4
  store i32 1, ptr %12, align 4
  br label %100

93:                                               ; preds = %89
  %94 = load i32, ptr %14, align 4
  %95 = load ptr, ptr %6, align 8
  %96 = getelementptr inbounds nuw %struct.pg_conn, ptr %95, i32 0, i32 49
  store i32 %94, ptr %96, align 4
  %97 = load ptr, ptr %13, align 8
  %98 = load ptr, ptr %6, align 8
  %99 = getelementptr inbounds nuw %struct.pg_conn, ptr %98, i32 0, i32 47
  store ptr %97, ptr %99, align 8
  store i32 0, ptr %12, align 4
  br label %100

100:                                              ; preds = %93, %92
  call void @llvm.lifetime.end.p0(i64 4, ptr %14) #5
  call void @llvm.lifetime.end.p0(i64 8, ptr %13) #5
  %101 = load i32, ptr %12, align 4
  switch i32 %101, label %192 [
    i32 0, label %102
  ]

102:                                              ; preds = %100
  br label %103

103:                                              ; preds = %102, %51
  %104 = load ptr, ptr %7, align 8
  %105 = load ptr, ptr %6, align 8
  %106 = getelementptr inbounds nuw %struct.pg_conn, ptr %105, i32 0, i32 47
  %107 = load ptr, ptr %106, align 8
  %108 = load ptr, ptr %6, align 8
  %109 = getelementptr inbounds nuw %struct.pg_conn, ptr %108, i32 0, i32 48
  %110 = load i32, ptr %109, align 8
  %111 = sext i32 %110 to i64
  %112 = getelementptr inbounds %struct.PGEvent, ptr %107, i64 %111
  %113 = getelementptr inbounds nuw %struct.PGEvent, ptr %112, i32 0, i32 0
  store ptr %104, ptr %113, align 8
  %114 = load ptr, ptr %8, align 8
  %115 = call noalias ptr @strdup(ptr noundef %114) #5
  %116 = load ptr, ptr %6, align 8
  %117 = getelementptr inbounds nuw %struct.pg_conn, ptr %116, i32 0, i32 47
  %118 = load ptr, ptr %117, align 8
  %119 = load ptr, ptr %6, align 8
  %120 = getelementptr inbounds nuw %struct.pg_conn, ptr %119, i32 0, i32 48
  %121 = load i32, ptr %120, align 8
  %122 = sext i32 %121 to i64
  %123 = getelementptr inbounds %struct.PGEvent, ptr %118, i64 %122
  %124 = getelementptr inbounds nuw %struct.PGEvent, ptr %123, i32 0, i32 1
  store ptr %115, ptr %124, align 8
  %125 = load ptr, ptr %6, align 8
  %126 = getelementptr inbounds nuw %struct.pg_conn, ptr %125, i32 0, i32 47
  %127 = load ptr, ptr %126, align 8
  %128 = load ptr, ptr %6, align 8
  %129 = getelementptr inbounds nuw %struct.pg_conn, ptr %128, i32 0, i32 48
  %130 = load i32, ptr %129, align 8
  %131 = sext i32 %130 to i64
  %132 = getelementptr inbounds %struct.PGEvent, ptr %127, i64 %131
  %133 = getelementptr inbounds nuw %struct.PGEvent, ptr %132, i32 0, i32 1
  %134 = load ptr, ptr %133, align 8
  %135 = icmp ne ptr %134, null
  br i1 %135, label %137, label %136

136:                                              ; preds = %103
  store i32 0, ptr %5, align 4
  store i32 1, ptr %12, align 4
  br label %192

137:                                              ; preds = %103
  %138 = load ptr, ptr %9, align 8
  %139 = load ptr, ptr %6, align 8
  %140 = getelementptr inbounds nuw %struct.pg_conn, ptr %139, i32 0, i32 47
  %141 = load ptr, ptr %140, align 8
  %142 = load ptr, ptr %6, align 8
  %143 = getelementptr inbounds nuw %struct.pg_conn, ptr %142, i32 0, i32 48
  %144 = load i32, ptr %143, align 8
  %145 = sext i32 %144 to i64
  %146 = getelementptr inbounds %struct.PGEvent, ptr %141, i64 %145
  %147 = getelementptr inbounds nuw %struct.PGEvent, ptr %146, i32 0, i32 2
  store ptr %138, ptr %147, align 8
  %148 = load ptr, ptr %6, align 8
  %149 = getelementptr inbounds nuw %struct.pg_conn, ptr %148, i32 0, i32 47
  %150 = load ptr, ptr %149, align 8
  %151 = load ptr, ptr %6, align 8
  %152 = getelementptr inbounds nuw %struct.pg_conn, ptr %151, i32 0, i32 48
  %153 = load i32, ptr %152, align 8
  %154 = sext i32 %153 to i64
  %155 = getelementptr inbounds %struct.PGEvent, ptr %150, i64 %154
  %156 = getelementptr inbounds nuw %struct.PGEvent, ptr %155, i32 0, i32 3
  store ptr null, ptr %156, align 8
  %157 = load ptr, ptr %6, align 8
  %158 = getelementptr inbounds nuw %struct.pg_conn, ptr %157, i32 0, i32 47
  %159 = load ptr, ptr %158, align 8
  %160 = load ptr, ptr %6, align 8
  %161 = getelementptr inbounds nuw %struct.pg_conn, ptr %160, i32 0, i32 48
  %162 = load i32, ptr %161, align 8
  %163 = sext i32 %162 to i64
  %164 = getelementptr inbounds %struct.PGEvent, ptr %159, i64 %163
  %165 = getelementptr inbounds nuw %struct.PGEvent, ptr %164, i32 0, i32 4
  store i8 0, ptr %165, align 8
  %166 = load ptr, ptr %6, align 8
  %167 = getelementptr inbounds nuw %struct.pg_conn, ptr %166, i32 0, i32 48
  %168 = load i32, ptr %167, align 8
  %169 = add i32 %168, 1
  store i32 %169, ptr %167, align 8
  %170 = load ptr, ptr %6, align 8
  %171 = getelementptr inbounds nuw %struct.PGEventRegister, ptr %11, i32 0, i32 0
  store ptr %170, ptr %171, align 8
  %172 = load ptr, ptr %7, align 8
  %173 = load ptr, ptr %9, align 8
  %174 = call i32 %172(i32 noundef 0, ptr noundef %11, ptr noundef %173)
  %175 = icmp ne i32 %174, 0
  br i1 %175, label %191, label %176

176:                                              ; preds = %137
  %177 = load ptr, ptr %6, align 8
  %178 = getelementptr inbounds nuw %struct.pg_conn, ptr %177, i32 0, i32 48
  %179 = load i32, ptr %178, align 8
  %180 = add i32 %179, -1
  store i32 %180, ptr %178, align 8
  %181 = load ptr, ptr %6, align 8
  %182 = getelementptr inbounds nuw %struct.pg_conn, ptr %181, i32 0, i32 47
  %183 = load ptr, ptr %182, align 8
  %184 = load ptr, ptr %6, align 8
  %185 = getelementptr inbounds nuw %struct.pg_conn, ptr %184, i32 0, i32 48
  %186 = load i32, ptr %185, align 8
  %187 = sext i32 %186 to i64
  %188 = getelementptr inbounds %struct.PGEvent, ptr %183, i64 %187
  %189 = getelementptr inbounds nuw %struct.PGEvent, ptr %188, i32 0, i32 1
  %190 = load ptr, ptr %189, align 8
  call void @free(ptr noundef %190) #5
  store i32 0, ptr %5, align 4
  store i32 1, ptr %12, align 4
  br label %192

191:                                              ; preds = %137
  store i32 1, ptr %5, align 4
  store i32 1, ptr %12, align 4
  br label %192

192:                                              ; preds = %191, %176, %136, %100, %46, %27
  call void @llvm.lifetime.end.p0(i64 8, ptr %11) #5
  call void @llvm.lifetime.end.p0(i64 4, ptr %10) #5
  %193 = load i32, ptr %5, align 4
  ret i32 %193
}