; Function Attrs: nounwind uwtable
define range(i32 0, 2) i32 @PQregisterEventProc(ptr noundef %0, ptr noundef %1, ptr noundef readonly captures(address_is_null) %2, ptr noundef %3) local_unnamed_addr #0 {
  %5 = alloca %struct.PGEventRegister, align 8
  call void @llvm.lifetime.start.p0(i64 8, ptr nonnull %5) #8
  %6 = icmp ne ptr %1, null
  %7 = icmp ne ptr %0, null
  %or.cond = and i1 %7, %6
  %8 = icmp ne ptr %2, null
  %or.cond3 = and i1 %or.cond, %8
  br i1 %or.cond3, label %9, label %.critedge

9:                                                ; preds = %4
  %10 = load i8, ptr %2, align 1
  %.not = icmp eq i8 %10, 0
  br i1 %.not, label %.critedge, label %.preheader

.preheader:                                       ; preds = %9
  %11 = getelementptr inbounds nuw i8, ptr %0, i64 408
  %12 = load i32, ptr %11, align 8
  %13 = icmp sgt i32 %12, 0
  br i1 %13, label %.lr.ph, label %._crit_edge

.lr.ph:                                           ; preds = %.preheader
  %14 = getelementptr inbounds nuw i8, ptr %0, i64 400
  %15 = load ptr, ptr %14, align 8
  %wide.trip.count = zext nneg i32 %12 to i64
  br label %17

16:                                               ; preds = %17
  %indvars.iv.next = add nuw nsw i64 %indvars.iv, 1
  %exitcond.not = icmp eq i64 %indvars.iv.next, %wide.trip.count
  br i1 %exitcond.not, label %._crit_edge, label %17, !llvm.loop !3

17:                                               ; preds = %.lr.ph, %16
  %indvars.iv = phi i64 [ 0, %.lr.ph ], [ %indvars.iv.next, %16 ]
  %18 = getelementptr inbounds nuw %struct.PGEvent, ptr %15, i64 %indvars.iv
  %19 = load ptr, ptr %18, align 8
  %20 = icmp eq ptr %19, %1
  br i1 %20, label %.critedge, label %16

._crit_edge:                                      ; preds = %16, %.preheader
  %21 = getelementptr inbounds nuw i8, ptr %0, i64 412
  %22 = load i32, ptr %21, align 4
  %.not58 = icmp slt i32 %12, %22
  br i1 %.not58, label %._crit_edge._crit_edge, label %23

._crit_edge._crit_edge:                           ; preds = %._crit_edge
  %.phi.trans.insert = getelementptr inbounds nuw i8, ptr %0, i64 400
  %.pre = load ptr, ptr %.phi.trans.insert, align 8
  br label %35

23:                                               ; preds = %._crit_edge
  %.not59 = icmp eq i32 %22, 0
  %24 = shl i32 %22, 1
  %spec.select = select i1 %.not59, i32 8, i32 %24
  %25 = getelementptr inbounds nuw i8, ptr %0, i64 400
  %26 = load ptr, ptr %25, align 8
  %.not60 = icmp eq ptr %26, null
  %27 = sext i32 %spec.select to i64
  %28 = mul nsw i64 %27, 40
  br i1 %.not60, label %31, label %29

29:                                               ; preds = %23
  %30 = tail call ptr @realloc(ptr noundef nonnull %26, i64 noundef %28) #9
  br label %33

31:                                               ; preds = %23
  %32 = tail call noalias ptr @malloc(i64 noundef %28) #10
  br label %33

33:                                               ; preds = %31, %29
  %.049 = phi ptr [ %30, %29 ], [ %32, %31 ]
  %.not61.not = icmp eq ptr %.049, null
  br i1 %.not61.not, label %.critedge, label %34

34:                                               ; preds = %33
  store i32 %spec.select, ptr %21, align 4
  store ptr %.049, ptr %25, align 8
  %.pre69 = load i32, ptr %11, align 8
  br label %35

35:                                               ; preds = %._crit_edge._crit_edge, %34
  %36 = phi i32 [ %12, %._crit_edge._crit_edge ], [ %.pre69, %34 ]
  %37 = phi ptr [ %.pre, %._crit_edge._crit_edge ], [ %.049, %34 ]
  %38 = getelementptr inbounds nuw i8, ptr %0, i64 400
  %39 = sext i32 %36 to i64
  %40 = getelementptr inbounds %struct.PGEvent, ptr %37, i64 %39
  store ptr %1, ptr %40, align 8
  %41 = tail call noalias ptr @strdup(ptr noundef nonnull %2) #8
  %42 = load ptr, ptr %38, align 8
  %43 = load i32, ptr %11, align 8
  %44 = sext i32 %43 to i64
  %45 = getelementptr inbounds %struct.PGEvent, ptr %42, i64 %44, i32 1
  store ptr %41, ptr %45, align 8
  %46 = load ptr, ptr %38, align 8
  %47 = load i32, ptr %11, align 8
  %48 = sext i32 %47 to i64
  %49 = getelementptr inbounds %struct.PGEvent, ptr %46, i64 %48
  %50 = getelementptr inbounds nuw i8, ptr %49, i64 8
  %51 = load ptr, ptr %50, align 8
  %.not62 = icmp eq ptr %51, null
  br i1 %.not62, label %.critedge, label %52

52:                                               ; preds = %35
  %53 = getelementptr inbounds nuw i8, ptr %49, i64 16
  store ptr %3, ptr %53, align 8
  %54 = load ptr, ptr %38, align 8
  %55 = load i32, ptr %11, align 8
  %56 = sext i32 %55 to i64
  %57 = getelementptr inbounds %struct.PGEvent, ptr %54, i64 %56, i32 3
  store ptr null, ptr %57, align 8
  %58 = load ptr, ptr %38, align 8
  %59 = load i32, ptr %11, align 8
  %60 = sext i32 %59 to i64
  %61 = getelementptr inbounds %struct.PGEvent, ptr %58, i64 %60, i32 4
  store i8 0, ptr %61, align 8
  %62 = load i32, ptr %11, align 8
  %63 = add i32 %62, 1
  store i32 %63, ptr %11, align 8
  store ptr %0, ptr %5, align 8
  %64 = call i32 %1(i32 noundef 0, ptr noundef nonnull %5, ptr noundef %3) #8
  %.not63 = icmp eq i32 %64, 0
  br i1 %.not63, label %65, label %.critedge

65:                                               ; preds = %52
  %66 = load i32, ptr %11, align 8
  %67 = add i32 %66, -1
  store i32 %67, ptr %11, align 8
  %68 = load ptr, ptr %38, align 8
  %69 = sext i32 %67 to i64
  %70 = getelementptr inbounds %struct.PGEvent, ptr %68, i64 %69, i32 1
  %71 = load ptr, ptr %70, align 8
  call void @free(ptr noundef %71) #8
  br label %.critedge

.critedge:                                        ; preds = %17, %33, %52, %35, %4, %9, %65
  %.0 = phi i32 [ 0, %65 ], [ 0, %9 ], [ 0, %4 ], [ 0, %35 ], [ 1, %52 ], [ 0, %33 ], [ 0, %17 ]
  call void @llvm.lifetime.end.p0(i64 8, ptr nonnull %5) #8
  ret i32 %.0
}